target datalayout = "e-m:e-p270:32:32-p271:32:32-p272:64:64-i64:64-i128:128-f80:128-n8:16:32:64-S128"
target triple = "x86_64-pc-linux-gnu"

%struct._lv_fs_path_ex_t = type { [4 x i8], ptr, i32 }

; Function Attrs: nounwind uwtable
define void @lv_fs_make_path_from_buffer(ptr noundef %0, i8 noundef signext %1, ptr noundef %2, i32 noundef %3) #0 {
  %5 = alloca ptr, align 8
  %6 = alloca i8, align 1
  %7 = alloca ptr, align 8
  %8 = alloca i32, align 4
  store ptr %0, ptr %5, align 8, !tbaa !6
  store i8 %1, ptr %6, align 1, !tbaa !3
  store ptr %2, ptr %7, align 8, !tbaa !6
  store i32 %3, ptr %8, align 4, !tbaa !14
  %9 = load i8, ptr %6, align 1, !tbaa !3
  %10 = load ptr, ptr %5, align 8, !tbaa !6
  %11 = getelementptr inbounds nuw %struct._lv_fs_path_ex_t, ptr %10, i32 0, i32 0
  %12 = getelementptr inbounds [4 x i8], ptr %11, i64 0, i64 0
  store i8 %9, ptr %12, align 8, !tbaa !3
  %13 = load ptr, ptr %5, align 8, !tbaa !6
  %14 = getelementptr inbounds nuw %struct._lv_fs_path_ex_t, ptr %13, i32 0, i32 0
  %15 = getelementptr inbounds [4 x i8], ptr %14, i64 0, i64 1
  store i8 58, ptr %15, align 1, !tbaa !3
  %16 = load ptr, ptr %5, align 8, !tbaa !6
  %17 = getelementptr inbounds nuw %struct._lv_fs_path_ex_t, ptr %16, i32 0, i32 0
  %18 = getelementptr inbounds [4 x i8], ptr %17, i64 0, i64 2
  store i8 0, ptr %18, align 2, !tbaa !3
  %19 = load ptr, ptr %7, align 8, !tbaa !6
  %20 = load ptr, ptr %5, align 8, !tbaa !6
  %21 = getelementptr inbounds nuw %struct._lv_fs_path_ex_t, ptr %20, i32 0, i32 1
  store ptr %19, ptr %21, align 8, !tbaa !24
  %22 = load i32, ptr %8, align 4, !tbaa !14
  %23 = load ptr, ptr %5, align 8, !tbaa !6
  %24 = getelementptr inbounds nuw %struct._lv_fs_path_ex_t, ptr %23, i32 0, i32 2
  store i32 %22, ptr %24, align 8, !tbaa !30
  ret void
}