; Function Attrs: mustprogress nofree norecurse nosync nounwind willreturn memory(argmem: write) uwtable
define void @lv_fs_make_path_from_buffer(ptr nocapture noundef writeonly %0, i8 noundef signext %1, ptr noundef %2, i32 noundef %3) local_unnamed_addr #3 {
  store i8 %1, ptr %0, align 8, !tbaa !13
  %5 = getelementptr inbounds i8, ptr %0, i64 1
  store i8 58, ptr %5, align 1, !tbaa !13
  %6 = getelementptr inbounds i8, ptr %0, i64 2
  store i8 0, ptr %6, align 2, !tbaa !13
  %7 = getelementptr inbounds nuw i8, ptr %0, i64 8
  store ptr %2, ptr %7, align 8, !tbaa !20
  %8 = getelementptr inbounds nuw i8, ptr %0, i64 16
  store i32 %3, ptr %8, align 8, !tbaa !26
  ret void
}